target datalayout = "e-m:e-p270:32:32-p271:32:32-p272:64:64-i64:64-i128:128-f80:128-n8:16:32:64-S128"
target triple = "x86_64-pc-linux-gnu"

@.str.80 = private unnamed_addr constant [20 x i8] c"android-logcat-main\00", align 1
@.str.82 = private unnamed_addr constant [22 x i8] c"android-logcat-system\00", align 1
@.str.84 = private unnamed_addr constant [21 x i8] c"android-logcat-radio\00", align 1
@.str.86 = private unnamed_addr constant [22 x i8] c"android-logcat-events\00", align 1

; Function Attrs: inlinehint nounwind null_pointer_is_valid sspstrong uwtable
define internal i32 @is_specified_interface(ptr noundef %0, ptr noundef %1) #7 {
  %3 = alloca ptr, align 8
  %4 = alloca ptr, align 8
  store ptr %0, ptr %3, align 8
  store ptr %1, ptr %4, align 8
  %5 = load ptr, ptr %3, align 8
  %6 = load ptr, ptr %4, align 8
  %7 = load ptr, ptr %4, align 8
  %8 = call i64 @strlen(ptr noundef %7) #21
  %9 = call i32 @strncmp(ptr noundef %5, ptr noundef %6, i64 noundef %8) #21
  %10 = icmp ne i32 %9, 0
  %11 = xor i1 %10, true
  %12 = zext i1 %11 to i32
  ret i32 %12
}

; Function Attrs: null_pointer_is_valid sspstrong uwtable
define internal zeroext i1 @is_logcat_interface(ptr noundef %0) #0 {
  %2 = alloca ptr, align 8
  store ptr %0, ptr %2, align 8
  %3 = load ptr, ptr %2, align 8
  %4 = call i32 @is_specified_interface(ptr noundef %3, ptr noundef @.str.80)
  %5 = icmp ne i32 %4, 0
  br i1 %5, label %18, label %6

6:                                                ; preds = %1
  %7 = load ptr, ptr %2, align 8
  %8 = call i32 @is_specified_interface(ptr noundef %7, ptr noundef @.str.82)
  %9 = icmp ne i32 %8, 0
  br i1 %9, label %18, label %10

10:                                               ; preds = %6
  %11 = load ptr, ptr %2, align 8
  %12 = call i32 @is_specified_interface(ptr noundef %11, ptr noundef @.str.84)
  %13 = icmp ne i32 %12, 0
  br i1 %13, label %18, label %14

14:                                               ; preds = %10
  %15 = load ptr, ptr %2, align 8
  %16 = call i32 @is_specified_interface(ptr noundef %15, ptr noundef @.str.86)
  %17 = icmp ne i32 %16, 0
  br label %18

18:                                               ; preds = %14, %10, %6, %1
  %19 = phi i1 [ true, %10 ], [ true, %6 ], [ true, %1 ], [ %17, %14 ]
  ret i1 %19
}