; Function Attrs: mustprogress nofree nounwind null_pointer_is_valid sspstrong willreturn memory(argmem: read) uwtable
define internal fastcc zeroext i1 @is_logcat_interface(ptr noundef readonly captures(none) %0) unnamed_addr #5 {
  %2 = tail call i32 @strncmp(ptr noundef readonly %0, ptr noundef nonnull dereferenceable(20) @.str.80, i64 noundef 19) #22
  %.not.i.not = icmp eq i32 %2, 0
  br i1 %.not.i.not, label %9, label %3

3:                                                ; preds = %1
  %4 = tail call i32 @strncmp(ptr noundef readonly %0, ptr noundef nonnull dereferenceable(22) @.str.82, i64 noundef 21) #22
  %.not.i6.not = icmp eq i32 %4, 0
  br i1 %.not.i6.not, label %9, label %5

5:                                                ; preds = %3
  %6 = tail call i32 @strncmp(ptr noundef readonly %0, ptr noundef nonnull dereferenceable(21) @.str.84, i64 noundef 20) #22
  %.not.i7.not = icmp eq i32 %6, 0
  br i1 %.not.i7.not, label %9, label %7

7:                                                ; preds = %5
  %8 = tail call i32 @strncmp(ptr noundef readonly %0, ptr noundef nonnull dereferenceable(22) @.str.86, i64 noundef 21) #22
  %.not.i8 = icmp eq i32 %8, 0
  br label %9

9:                                                ; preds = %7, %5, %3, %1
  %10 = phi i1 [ true, %5 ], [ true, %3 ], [ true, %1 ], [ %.not.i8, %7 ]
  ret i1 %10
}